target datalayout = "e-m:e-p270:32:32-p271:32:32-p272:64:64-i64:64-i128:128-f80:128-n8:16:32:64-S128"
target triple = "x86_64-unknown-linux-gnu"

%struct.tb_tree_stats = type { i64, i64, i64, i64, i64, i64, i64 }
%struct.TranslationBlock = type { i64, i64, i32, i32, i16, i16, %struct.tb_tc, [2 x i64], [2 x i64], %struct.QemuSpin, [2 x i16], [2 x i16], [2 x i64], i64, [2 x i64], [2 x i64] }
%struct.tb_tc = type { ptr, i64 }
%struct.QemuSpin = type { i32 }

; Function Attrs: nounwind sspstrong uwtable
define internal i32 @tb_tree_stats_iter(ptr noundef %key, ptr noundef %value, ptr noundef %data) #0 {
entry:
  %key.addr = alloca ptr, align 8
  %value.addr = alloca ptr, align 8
  %data.addr = alloca ptr, align 8
  %tb = alloca ptr, align 8
  %tst = alloca ptr, align 8
  store ptr %key, ptr %key.addr, align 8
  store ptr %value, ptr %value.addr, align 8
  store ptr %data, ptr %data.addr, align 8
  %0 = load ptr, ptr %value.addr, align 8
  store ptr %0, ptr %tb, align 8
  %1 = load ptr, ptr %data.addr, align 8
  store ptr %1, ptr %tst, align 8
  %2 = load ptr, ptr %tst, align 8
  %nb_tbs = getelementptr inbounds %struct.tb_tree_stats, ptr %2, i32 0, i32 0
  %3 = load i64, ptr %nb_tbs, align 8
  %inc = add i64 %3, 1
  store i64 %inc, ptr %nb_tbs, align 8
  %4 = load ptr, ptr %tb, align 8
  %tc = getelementptr inbounds %struct.TranslationBlock, ptr %4, i32 0, i32 6
  %size = getelementptr inbounds %struct.tb_tc, ptr %tc, i32 0, i32 1
  %5 = load i64, ptr %size, align 8
  %6 = load ptr, ptr %tst, align 8
  %host_size = getelementptr inbounds %struct.tb_tree_stats, ptr %6, i32 0, i32 1
  %7 = load i64, ptr %host_size, align 8
  %add = add i64 %7, %5
  store i64 %add, ptr %host_size, align 8
  %8 = load ptr, ptr %tb, align 8
  %size1 = getelementptr inbounds %struct.TranslationBlock, ptr %8, i32 0, i32 4
  %9 = load i16, ptr %size1, align 8
  %conv = zext i16 %9 to i64
  %10 = load ptr, ptr %tst, align 8
  %target_size = getelementptr inbounds %struct.tb_tree_stats, ptr %10, i32 0, i32 2
  %11 = load i64, ptr %target_size, align 8
  %add2 = add i64 %11, %conv
  store i64 %add2, ptr %target_size, align 8
  %12 = load ptr, ptr %tb, align 8
  %size3 = getelementptr inbounds %struct.TranslationBlock, ptr %12, i32 0, i32 4
  %13 = load i16, ptr %size3, align 8
  %conv4 = zext i16 %13 to i64
  %14 = load ptr, ptr %tst, align 8
  %max_target_size = getelementptr inbounds %struct.tb_tree_stats, ptr %14, i32 0, i32 3
  %15 = load i64, ptr %max_target_size, align 8
  %cmp = icmp ugt i64 %conv4, %15
  br i1 %cmp, label %if.then, label %if.end

if.then:                                          ; preds = %entry
  %16 = load ptr, ptr %tb, align 8
  %size6 = getelementptr inbounds %struct.TranslationBlock, ptr %16, i32 0, i32 4
  %17 = load i16, ptr %size6, align 8
  %conv7 = zext i16 %17 to i64
  %18 = load ptr, ptr %tst, align 8
  %max_target_size8 = getelementptr inbounds %struct.tb_tree_stats, ptr %18, i32 0, i32 3
  store i64 %conv7, ptr %max_target_size8, align 8
  br label %if.end

if.end:                                           ; preds = %if.then, %entry
  %19 = load ptr, ptr %tb, align 8
  %page_addr = getelementptr inbounds %struct.TranslationBlock, ptr %19, i32 0, i32 8
  %arrayidx = getelementptr [2 x i64], ptr %page_addr, i64 0, i64 1
  %20 = load i64, ptr %arrayidx, align 8
  %cmp9 = icmp ne i64 %20, -1
  br i1 %cmp9, label %if.then11, label %if.end13

if.then11:                                        ; preds = %if.end
  %21 = load ptr, ptr %tst, align 8
  %cross_page = getelementptr inbounds %struct.tb_tree_stats, ptr %21, i32 0, i32 6
  %22 = load i64, ptr %cross_page, align 8
  %inc12 = add i64 %22, 1
  store i64 %inc12, ptr %cross_page, align 8
  br label %if.end13

if.end13:                                         ; preds = %if.then11, %if.end
  %23 = load ptr, ptr %tb, align 8
  %jmp_reset_offset = getelementptr inbounds %struct.TranslationBlock, ptr %23, i32 0, i32 10
  %arrayidx14 = getelementptr [2 x i16], ptr %jmp_reset_offset, i64 0, i64 0
  %24 = load i16, ptr %arrayidx14, align 4
  %conv15 = zext i16 %24 to i32
  %cmp16 = icmp ne i32 %conv15, 65535
  br i1 %cmp16, label %if.then18, label %if.end28

if.then18:                                        ; preds = %if.end13
  %25 = load ptr, ptr %tst, align 8
  %direct_jmp_count = getelementptr inbounds %struct.tb_tree_stats, ptr %25, i32 0, i32 4
  %26 = load i64, ptr %direct_jmp_count, align 8
  %inc19 = add i64 %26, 1
  store i64 %inc19, ptr %direct_jmp_count, align 8
  %27 = load ptr, ptr %tb, align 8
  %jmp_reset_offset20 = getelementptr inbounds %struct.TranslationBlock, ptr %27, i32 0, i32 10
  %arrayidx21 = getelementptr [2 x i16], ptr %jmp_reset_offset20, i64 0, i64 1
  %28 = load i16, ptr %arrayidx21, align 2
  %conv22 = zext i16 %28 to i32
  %cmp23 = icmp ne i32 %conv22, 65535
  br i1 %cmp23, label %if.then25, label %if.end27

if.then25:                                        ; preds = %if.then18
  %29 = load ptr, ptr %tst, align 8
  %direct_jmp2_count = getelementptr inbounds %struct.tb_tree_stats, ptr %29, i32 0, i32 5
  %30 = load i64, ptr %direct_jmp2_count, align 8
  %inc26 = add i64 %30, 1
  store i64 %inc26, ptr %direct_jmp2_count, align 8
  br label %if.end27

if.end27:                                         ; preds = %if.then25, %if.then18
  br label %if.end28

if.end28:                                         ; preds = %if.end27, %if.end13
  ret i32 0
}