; Function Attrs: mustprogress nofree norecurse nosync nounwind sspstrong willreturn memory(argmem: readwrite) uwtable
define internal noundef i32 @tb_tree_stats_iter(ptr readnone captures(none) %key, ptr noundef readonly captures(none) %value, ptr noundef captures(none) %data) #3 {
entry:
  %0 = load i64, ptr %data, align 8
  %inc = add i64 %0, 1
  store i64 %inc, ptr %data, align 8
  %size = getelementptr inbounds nuw i8, ptr %value, i64 40
  %1 = load i64, ptr %size, align 8
  %host_size = getelementptr inbounds nuw i8, ptr %data, i64 8
  %2 = load i64, ptr %host_size, align 8
  %add = add i64 %2, %1
  store i64 %add, ptr %host_size, align 8
  %size1 = getelementptr inbounds nuw i8, ptr %value, i64 24
  %3 = load i16, ptr %size1, align 8
  %conv = zext i16 %3 to i64
  %target_size = getelementptr inbounds nuw i8, ptr %data, i64 16
  %4 = load i64, ptr %target_size, align 8
  %add2 = add i64 %4, %conv
  store i64 %add2, ptr %target_size, align 8
  %5 = load i16, ptr %size1, align 8
  %conv4 = zext i16 %5 to i64
  %max_target_size = getelementptr inbounds nuw i8, ptr %data, i64 24
  %6 = load i64, ptr %max_target_size, align 8
  %cmp = icmp ult i64 %6, %conv4
  br i1 %cmp, label %if.then, label %if.end

if.then:                                          ; preds = %entry
  store i64 %conv4, ptr %max_target_size, align 8
  br label %if.end

if.end:                                           ; preds = %if.then, %entry
  %arrayidx = getelementptr i8, ptr %value, i64 72
  %7 = load i64, ptr %arrayidx, align 8
  %cmp9.not = icmp eq i64 %7, -1
  br i1 %cmp9.not, label %if.end13, label %if.then11

if.then11:                                        ; preds = %if.end
  %cross_page = getelementptr inbounds nuw i8, ptr %data, i64 48
  %8 = load i64, ptr %cross_page, align 8
  %inc12 = add i64 %8, 1
  store i64 %inc12, ptr %cross_page, align 8
  br label %if.end13

if.end13:                                         ; preds = %if.then11, %if.end
  %jmp_reset_offset = getelementptr inbounds nuw i8, ptr %value, i64 84
  %9 = load i16, ptr %jmp_reset_offset, align 4
  %cmp16.not = icmp eq i16 %9, -1
  br i1 %cmp16.not, label %if.end28, label %if.then18

if.then18:                                        ; preds = %if.end13
  %direct_jmp_count = getelementptr inbounds nuw i8, ptr %data, i64 32
  %10 = load i64, ptr %direct_jmp_count, align 8
  %inc19 = add i64 %10, 1
  store i64 %inc19, ptr %direct_jmp_count, align 8
  %arrayidx21 = getelementptr i8, ptr %value, i64 86
  %11 = load i16, ptr %arrayidx21, align 2
  %cmp23.not = icmp eq i16 %11, -1
  br i1 %cmp23.not, label %if.end28, label %if.then25

if.then25:                                        ; preds = %if.then18
  %direct_jmp2_count = getelementptr inbounds nuw i8, ptr %data, i64 40
  %12 = load i64, ptr %direct_jmp2_count, align 8
  %inc26 = add i64 %12, 1
  store i64 %inc26, ptr %direct_jmp2_count, align 8
  br label %if.end28

if.end28:                                         ; preds = %if.then18, %if.then25, %if.end13
  ret i32 0
}